target datalayout = "e-m:e-p270:32:32-p271:32:32-p272:64:64-i64:64-i128:128-f80:128-n8:16:32:64-S128"
target triple = "x86_64-pc-linux-gnu"

%struct.reftable_iterator_vtable = type { ptr, ptr, ptr }
%struct.reftable_iterator = type { ptr, ptr }
%struct.reftable_buf = type { i64, i64, ptr }
%struct.filtering_ref_iterator = type { %struct.reftable_buf, %struct.reftable_iterator }

; Function Attrs: nounwind uwtable
define dso_local void @reftable_iterator_destroy(ptr noundef %0) #0 {
  %2 = alloca ptr, align 8
  store ptr %0, ptr %2, align 8, !tbaa !4
  %3 = load ptr, ptr %2, align 8, !tbaa !4
  %4 = getelementptr inbounds nuw %struct.reftable_iterator, ptr %3, i32 0, i32 0
  %5 = load ptr, ptr %4, align 8, !tbaa !11
  %6 = icmp ne ptr %5, null
  br i1 %6, label %8, label %7

7:                                                ; preds = %1
  br label %25

8:                                                ; preds = %1
  %9 = load ptr, ptr %2, align 8, !tbaa !4
  %10 = getelementptr inbounds nuw %struct.reftable_iterator, ptr %9, i32 0, i32 0
  %11 = load ptr, ptr %10, align 8, !tbaa !11
  %12 = getelementptr inbounds nuw %struct.reftable_iterator_vtable, ptr %11, i32 0, i32 2
  %13 = load ptr, ptr %12, align 8, !tbaa !53
  %14 = load ptr, ptr %2, align 8, !tbaa !4
  %15 = getelementptr inbounds nuw %struct.reftable_iterator, ptr %14, i32 0, i32 1
  %16 = load ptr, ptr %15, align 8, !tbaa !16
  call void %13(ptr noundef %16)
  %17 = load ptr, ptr %2, align 8, !tbaa !4
  %18 = getelementptr inbounds nuw %struct.reftable_iterator, ptr %17, i32 0, i32 0
  store ptr null, ptr %18, align 8, !tbaa !11
  br label %19

19:                                               ; preds = %8
  %20 = load ptr, ptr %2, align 8, !tbaa !4
  %21 = getelementptr inbounds nuw %struct.reftable_iterator, ptr %20, i32 0, i32 1
  %22 = load ptr, ptr %21, align 8, !tbaa !16
  call void @reftable_free(ptr noundef %22)
  %23 = load ptr, ptr %2, align 8, !tbaa !4
  %24 = getelementptr inbounds nuw %struct.reftable_iterator, ptr %23, i32 0, i32 1
  store ptr null, ptr %24, align 8, !tbaa !16
  br label %25

25:                                               ; preds = %7, %19
  ret void
}

; Function Attrs: nounwind uwtable
define internal void @filtering_ref_iterator_close(ptr noundef %0) #0 {
  %2 = alloca ptr, align 8
  %3 = alloca ptr, align 8
  store ptr %0, ptr %2, align 8, !tbaa !37
  call void @llvm.lifetime.start.p0(i64 8, ptr %3) #7
  %4 = load ptr, ptr %2, align 8, !tbaa !37
  store ptr %4, ptr %3, align 8, !tbaa !18
  %5 = load ptr, ptr %3, align 8, !tbaa !18
  %6 = getelementptr inbounds nuw %struct.filtering_ref_iterator, ptr %5, i32 0, i32 0
  call void @reftable_buf_release(ptr noundef %6)
  %7 = load ptr, ptr %3, align 8, !tbaa !18
  %8 = getelementptr inbounds nuw %struct.filtering_ref_iterator, ptr %7, i32 0, i32 1
  call void @reftable_iterator_destroy(ptr noundef %8)
  call void @llvm.lifetime.end.p0(i64 8, ptr %3) #7
  ret void
}