; Function Attrs: nounwind uwtable
define internal void @filtering_ref_iterator_close(ptr noundef %0) #0 {
  tail call void @reftable_buf_release(ptr noundef %0) #10
  %2 = getelementptr inbounds nuw i8, ptr %0, i64 24
  %3 = load ptr, ptr %2, align 8, !tbaa !4
  %.not.i = icmp eq ptr %3, null
  br i1 %.not.i, label %reftable_iterator_destroy.exit, label %4

4:                                                ; preds = %1
  %5 = getelementptr inbounds nuw i8, ptr %3, i64 16
  %6 = load ptr, ptr %5, align 8, !tbaa !36
  %7 = getelementptr inbounds nuw i8, ptr %0, i64 32
  %8 = load ptr, ptr %7, align 8, !tbaa !12
  tail call void %6(ptr noundef %8) #10
  store ptr null, ptr %2, align 8, !tbaa !4
  %9 = load ptr, ptr %7, align 8, !tbaa !12
  tail call void @reftable_free(ptr noundef %9) #10
  store ptr null, ptr %7, align 8, !tbaa !12
  br label %reftable_iterator_destroy.exit

reftable_iterator_destroy.exit:                   ; preds = %1, %4
  ret void
}